target datalayout = "e-m:e-p270:32:32-p271:32:32-p272:64:64-i64:64-i128:128-f80:128-n8:16:32:64-S128"
target triple = "x86_64-pc-linux-gnu"

%"class.absl::NoDestructor" = type { %"class.absl::NoDestructor<absl::Mutex>::PlacementImpl" }
%"class.absl::NoDestructor<absl::Mutex>::PlacementImpl" = type { [8 x i8] }
%"class.absl::MutexLock" = type { ptr }
%"class.absl::Mutex" = type { %"struct.std::atomic" }
%"struct.std::atomic" = type { %"struct.std::__atomic_base" }
%"struct.std::__atomic_base" = type { i64 }

@_ZN4absl14flags_internal12_GLOBAL__N_19help_modeE = internal global i32 0, align 4
@_ZZN4absl14flags_internal12_GLOBAL__N_119HelpAttributesMutexEvE5mutex = internal global %"class.absl::NoDestructor" zeroinitializer, align 8
@_ZGVZN4absl14flags_internal12_GLOBAL__N_119HelpAttributesMutexEvE5mutex = internal global i64 0, align 8

; Function Attrs: mustprogress nounwind uwtable
define linkonce_odr dso_local void @_ZNSt13__atomic_baseIlEC2El(ptr noundef nonnull align 8 dereferenceable(8) %0, i64 noundef %1) unnamed_addr #2 comdat align 2 {
  %3 = alloca ptr, align 8
  %4 = alloca i64, align 8
  store ptr %0, ptr %3, align 8, !tbaa !359
  store i64 %1, ptr %4, align 8, !tbaa !22
  %5 = load ptr, ptr %3, align 8
  %6 = getelementptr inbounds nuw %"struct.std::__atomic_base", ptr %5, i32 0, i32 0
  %7 = load i64, ptr %4, align 8, !tbaa !22
  store i64 %7, ptr %6, align 8, !tbaa !361
  ret void
}

; Function Attrs: mustprogress nounwind uwtable
define linkonce_odr dso_local noundef ptr @_ZSt7launderIN4absl5MutexEEPT_S3_(ptr noundef %0) #2 comdat {
  %2 = alloca ptr, align 8
  store ptr %0, ptr %2, align 8, !tbaa !67
  %3 = load ptr, ptr %2, align 8, !tbaa !67
  ret ptr %3
}

; Function Attrs: mustprogress nounwind uwtable
define linkonce_odr dso_local void @_ZNSt6atomicIlEC2El(ptr noundef nonnull align 8 dereferenceable(8) %0, i64 noundef %1) unnamed_addr #2 comdat align 2 {
  %3 = alloca ptr, align 8
  %4 = alloca i64, align 8
  store ptr %0, ptr %3, align 8, !tbaa !357
  store i64 %1, ptr %4, align 8, !tbaa !22
  %5 = load ptr, ptr %3, align 8
  %6 = load i64, ptr %4, align 8, !tbaa !22
  call void @_ZNSt13__atomic_baseIlEC2El(ptr noundef nonnull align 8 dereferenceable(8) %5, i64 noundef %6) #18
  ret void
}

; Function Attrs: mustprogress nounwind uwtable
define linkonce_odr dso_local noundef ptr @_ZN4absl12NoDestructorINS_5MutexEE13PlacementImpl7LaunderIS1_EEPT_S6_(ptr noundef %0) #2 comdat align 2 {
  %2 = alloca ptr, align 8
  store ptr %0, ptr %2, align 8, !tbaa !67
  %3 = load ptr, ptr %2, align 8, !tbaa !67
  %4 = call noundef ptr @_ZSt7launderIN4absl5MutexEEPT_S3_(ptr noundef %3) #18
  ret ptr %4
}

; Function Attrs: inlinehint mustprogress nounwind uwtable
define linkonce_odr dso_local void @_ZN4absl5MutexC2Ev(ptr noundef nonnull align 8 dereferenceable(8) %0) unnamed_addr #5 comdat align 2 {
  %2 = alloca ptr, align 8
  store ptr %0, ptr %2, align 8, !tbaa !67
  %3 = load ptr, ptr %2, align 8
  %4 = getelementptr inbounds nuw %"class.absl::Mutex", ptr %3, i32 0, i32 0
  call void @_ZNSt6atomicIlEC2El(ptr noundef nonnull align 8 dereferenceable(8) %4, i64 noundef 0) #18
  ret void
}

; Function Attrs: mustprogress uwtable
define linkonce_odr dso_local noundef ptr @_ZN4absl12NoDestructorINS_5MutexEE13PlacementImpl3getEv(ptr noundef nonnull align 8 dereferenceable(8) %0) #0 comdat align 2 {
  %2 = alloca ptr, align 8
  store ptr %0, ptr %2, align 8, !tbaa !355
  %3 = load ptr, ptr %2, align 8
  %4 = getelementptr inbounds nuw %"class.absl::NoDestructor<absl::Mutex>::PlacementImpl", ptr %3, i32 0, i32 0
  %5 = call noundef ptr @_ZN4absl12NoDestructorINS_5MutexEE13PlacementImpl7LaunderIS1_EEPT_S6_(ptr noundef %4)
  ret ptr %5
}

; Function Attrs: mustprogress uwtable
define linkonce_odr dso_local void @_ZN4absl12NoDestructorINS_5MutexEE13PlacementImplC2IJEEEDpOT_(ptr noundef nonnull align 8 dereferenceable(8) %0) unnamed_addr #0 comdat align 2 {
  %2 = alloca ptr, align 8
  store ptr %0, ptr %2, align 8, !tbaa !355
  %3 = load ptr, ptr %2, align 8
  %4 = getelementptr inbounds nuw %"class.absl::NoDestructor<absl::Mutex>::PlacementImpl", ptr %3, i32 0, i32 0
  call void @_ZN4absl5MutexC2Ev(ptr noundef nonnull align 8 dereferenceable(8) %4)
  ret void
}

; Function Attrs: mustprogress uwtable
define linkonce_odr dso_local noundef ptr @_ZN4absl12NoDestructorINS_5MutexEE3getEv(ptr noundef nonnull align 8 dereferenceable(8) %0) #0 comdat align 2 {
  %2 = alloca ptr, align 8
  store ptr %0, ptr %2, align 8, !tbaa !353
  %3 = load ptr, ptr %2, align 8
  %4 = getelementptr inbounds nuw %"class.absl::NoDestructor", ptr %3, i32 0, i32 0
  %5 = call noundef ptr @_ZN4absl12NoDestructorINS_5MutexEE13PlacementImpl3getEv(ptr noundef nonnull align 8 dereferenceable(8) %4)
  ret ptr %5
}

; Function Attrs: mustprogress uwtable
define linkonce_odr dso_local void @_ZN4absl12NoDestructorINS_5MutexEEC2IJETnNSt9enable_ifIXntsr3std7is_sameIFvDpRNSt5decayIT_E4typeEEFvRS2_EEE5valueEiE4typeELi0EEEDpOS6_(ptr noundef nonnull align 8 dereferenceable(8) %0) unnamed_addr #0 comdat align 2 {
  %2 = alloca ptr, align 8
  store ptr %0, ptr %2, align 8, !tbaa !353
  %3 = load ptr, ptr %2, align 8
  %4 = getelementptr inbounds nuw %"class.absl::NoDestructor", ptr %3, i32 0, i32 0
  call void @_ZN4absl12NoDestructorINS_5MutexEE13PlacementImplC2IJEEEDpOT_(ptr noundef nonnull align 8 dereferenceable(8) %4)
  ret void
}

; Function Attrs: mustprogress nounwind uwtable
define linkonce_odr dso_local void @_ZN4absl9MutexLockD2Ev(ptr noundef nonnull align 8 dereferenceable(8) %0) unnamed_addr #2 comdat align 2 personality ptr @__gxx_personality_v0 {
  %2 = alloca ptr, align 8
  store ptr %0, ptr %2, align 8, !tbaa !65
  %3 = load ptr, ptr %2, align 8
  %4 = getelementptr inbounds nuw %"class.absl::MutexLock", ptr %3, i32 0, i32 0
  %5 = load ptr, ptr %4, align 8, !tbaa !69
  invoke void @_ZN4absl5Mutex6UnlockEv(ptr noundef nonnull align 8 dereferenceable(8) %5)
          to label %6 unwind label %7

6:                                                ; preds = %1
  ret void

7:                                                ; preds = %1
  %8 = landingpad { ptr, i32 }
          catch ptr null
  %9 = extractvalue { ptr, i32 } %8, 0
  call void @__clang_call_terminate(ptr %9) #19
  unreachable
}

; Function Attrs: mustprogress uwtable
define linkonce_odr dso_local void @_ZN4absl9MutexLockC2EPNS_5MutexE(ptr noundef nonnull align 8 dereferenceable(8) %0, ptr noundef %1) unnamed_addr #0 comdat align 2 {
  %3 = alloca ptr, align 8
  %4 = alloca ptr, align 8
  store ptr %0, ptr %3, align 8, !tbaa !65
  store ptr %1, ptr %4, align 8, !tbaa !67
  %5 = load ptr, ptr %3, align 8
  %6 = getelementptr inbounds nuw %"class.absl::MutexLock", ptr %5, i32 0, i32 0
  %7 = load ptr, ptr %4, align 8, !tbaa !67
  store ptr %7, ptr %6, align 8, !tbaa !69
  %8 = getelementptr inbounds nuw %"class.absl::MutexLock", ptr %5, i32 0, i32 0
  %9 = load ptr, ptr %8, align 8, !tbaa !69
  call void @_ZN4absl5Mutex4LockEv(ptr noundef nonnull align 8 dereferenceable(8) %9)
  ret void
}

; Function Attrs: mustprogress uwtable
define internal noundef ptr @_ZN4absl14flags_internal12_GLOBAL__N_119HelpAttributesMutexEv() #0 personality ptr @__gxx_personality_v0 {
  %1 = alloca ptr, align 8
  %2 = alloca i32, align 4
  %3 = load atomic i8, ptr @_ZGVZN4absl14flags_internal12_GLOBAL__N_119HelpAttributesMutexEvE5mutex acquire, align 8
  %4 = icmp eq i8 %3, 0
  br i1 %4, label %5, label %10, !prof !64

5:                                                ; preds = %0
  %6 = call i32 @__cxa_guard_acquire(ptr @_ZGVZN4absl14flags_internal12_GLOBAL__N_119HelpAttributesMutexEvE5mutex) #18
  %7 = icmp ne i32 %6, 0
  br i1 %7, label %8, label %10

8:                                                ; preds = %5
  invoke void @_ZN4absl12NoDestructorINS_5MutexEEC2IJETnNSt9enable_ifIXntsr3std7is_sameIFvDpRNSt5decayIT_E4typeEEFvRS2_EEE5valueEiE4typeELi0EEEDpOS6_(ptr noundef nonnull align 8 dereferenceable(8) @_ZZN4absl14flags_internal12_GLOBAL__N_119HelpAttributesMutexEvE5mutex)
          to label %9 unwind label %12

9:                                                ; preds = %8
  call void @__cxa_guard_release(ptr @_ZGVZN4absl14flags_internal12_GLOBAL__N_119HelpAttributesMutexEvE5mutex) #18
  br label %10

10:                                               ; preds = %9, %5, %0
  %11 = call noundef ptr @_ZN4absl12NoDestructorINS_5MutexEE3getEv(ptr noundef nonnull align 8 dereferenceable(8) @_ZZN4absl14flags_internal12_GLOBAL__N_119HelpAttributesMutexEvE5mutex)
  ret ptr %11

12:                                               ; preds = %8
  %13 = landingpad { ptr, i32 }
          cleanup
  %14 = extractvalue { ptr, i32 } %13, 0
  store ptr %14, ptr %1, align 8
  %15 = extractvalue { ptr, i32 } %13, 1
  store i32 %15, ptr %2, align 4
  call void @__cxa_guard_abort(ptr @_ZGVZN4absl14flags_internal12_GLOBAL__N_119HelpAttributesMutexEvE5mutex) #18
  br label %16

16:                                               ; preds = %12
  %17 = load ptr, ptr %1, align 8
  %18 = load i32, ptr %2, align 4
  %19 = insertvalue { ptr, i32 } poison, ptr %17, 0
  %20 = insertvalue { ptr, i32 } %19, i32 %18, 1
  resume { ptr, i32 } %20
}

; Function Attrs: mustprogress uwtable
define dso_local void @_ZN4absl14flags_internal16SetFlagsHelpModeENS0_8HelpModeE(i32 noundef %0) #0 {
  %2 = alloca i32, align 4
  %3 = alloca %"class.absl::MutexLock", align 8
  store i32 %0, ptr %2, align 4, !tbaa !35
  call void @llvm.lifetime.start.p0(i64 8, ptr %3) #18
  %4 = call noundef ptr @_ZN4absl14flags_internal12_GLOBAL__N_119HelpAttributesMutexEv()
  call void @_ZN4absl9MutexLockC2EPNS_5MutexE(ptr noundef nonnull align 8 dereferenceable(8) %3, ptr noundef %4)
  %5 = load i32, ptr %2, align 4, !tbaa !35
  store i32 %5, ptr @_ZN4absl14flags_internal12_GLOBAL__N_19help_modeE, align 4, !tbaa !35
  call void @_ZN4absl9MutexLockD2Ev(ptr noundef nonnull align 8 dereferenceable(8) %3) #18
  call void @llvm.lifetime.end.p0(i64 8, ptr %3) #18
  ret void
}